; Function Attrs: mustprogress nofree norecurse nosync nounwind willreturn memory(argmem: read) uwtable
define hidden noundef i32 @_ZNK19OpenColorIO_v2_4dev31ExponentWithLinearTransformImpl12getDirectionEv(ptr nocapture noundef nonnull readonly align 8 dereferenceable(280) %this) unnamed_addr #7 align 2 {
entry:
  %m_style.i = getelementptr inbounds i8, ptr %this, i64 176
  %0 = load i32, ptr %m_style.i, align 8
  %1 = add i32 %0, -6
  %switch.and = and i32 %1, -3
  %switch.selectcmp = icmp ne i32 %switch.and, 0
  %2 = zext i1 %switch.selectcmp to i32
  ret i32 %2
}